; Function Attrs: nounwind sspstrong uwtable
define internal fastcc range(i32 0, 2) i32 @inspect_socktype(i64 noundef %0, i64 noundef %1) unnamed_addr #0 {
  %3 = inttoptr i64 %0 to ptr
  %4 = getelementptr inbounds nuw i8, ptr %3, i64 16
  %5 = load i64, ptr %4, align 8, !tbaa !15
  %6 = icmp eq i64 %5, 4
  br i1 %6, label %7, label %19

7:                                                ; preds = %2
  %8 = load i64, ptr %3, align 8, !tbaa !13, !noalias !101
  %9 = and i64 %8, 8192
  %.not.i.i = icmp eq i64 %9, 0
  %10 = getelementptr inbounds nuw i8, ptr %3, i64 24
  br i1 %.not.i.i, label %RSTRING_PTR.exit, label %11

11:                                               ; preds = %7
  %.sroa.2.0.copyload.i = load ptr, ptr %10, align 8
  br label %RSTRING_PTR.exit

RSTRING_PTR.exit:                                 ; preds = %7, %11
  %.sroa.2.0.i = phi ptr [ %.sroa.2.0.copyload.i, %11 ], [ %10, %7 ]
  %12 = load i32, ptr %.sroa.2.0.i, align 1
  %13 = tail call i64 @rsock_intern_socktype(i32 noundef %12) #6
  %.not = icmp eq i64 %13, 0
  br i1 %.not, label %17, label %14

14:                                               ; preds = %RSTRING_PTR.exit
  %15 = tail call ptr @rb_id2name(i64 noundef %13) #6
  %16 = tail call i64 (i64, ptr, ...) @rb_str_catf(i64 noundef %1, ptr noundef nonnull @.str.19, ptr noundef %15) #6
  br label %19

17:                                               ; preds = %RSTRING_PTR.exit
  %18 = tail call i64 (i64, ptr, ...) @rb_str_catf(i64 noundef %1, ptr noundef nonnull @.str.27, i32 noundef %12) #6
  br label %19

19:                                               ; preds = %14, %17, %2
  %.0 = phi i32 [ 0, %2 ], [ 1, %17 ], [ 1, %14 ]
  ret i32 %.0
}